target datalayout = "e-m:e-p270:32:32-p271:32:32-p272:64:64-i64:64-i128:128-f80:128-n8:16:32:64-S128"
target triple = "x86_64-pc-linux-gnu"

%"class.base::JSONWriter" = type { i8, i8, i8, ptr }

; Function Attrs: mustprogress nounwind uwtable
define void @_ZN4base10JSONWriterC2EiPNSt7__cxx1112basic_stringIcSt11char_traitsIcESaIcEEE(ptr noundef nonnull align 8 dereferenceable(16) %0, i32 noundef %1, ptr noundef %2) unnamed_addr #1 align 2 {
  %4 = alloca ptr, align 8
  %5 = alloca i32, align 4
  %6 = alloca ptr, align 8
  store ptr %0, ptr %4, align 8, !tbaa !16
  store i32 %1, ptr %5, align 4, !tbaa !10
  store ptr %2, ptr %6, align 8, !tbaa !8
  %7 = load ptr, ptr %4, align 8
  %8 = getelementptr inbounds nuw %"class.base::JSONWriter", ptr %7, i32 0, i32 0
  %9 = load i32, ptr %5, align 4, !tbaa !10
  %10 = and i32 %9, 1
  %11 = icmp ne i32 %10, 0
  %12 = zext i1 %11 to i8
  store i8 %12, ptr %8, align 8, !tbaa !33
  %13 = getelementptr inbounds nuw %"class.base::JSONWriter", ptr %7, i32 0, i32 1
  %14 = load i32, ptr %5, align 4, !tbaa !10
  %15 = and i32 %14, 2
  %16 = icmp ne i32 %15, 0
  %17 = zext i1 %16 to i8
  store i8 %17, ptr %13, align 1, !tbaa !24
  %18 = getelementptr inbounds nuw %"class.base::JSONWriter", ptr %7, i32 0, i32 2
  %19 = load i32, ptr %5, align 4, !tbaa !10
  %20 = and i32 %19, 4
  %21 = icmp ne i32 %20, 0
  %22 = zext i1 %21 to i8
  store i8 %22, ptr %18, align 2, !tbaa !28
  %23 = getelementptr inbounds nuw %"class.base::JSONWriter", ptr %7, i32 0, i32 3
  %24 = load ptr, ptr %6, align 8, !tbaa !8
  store ptr %24, ptr %23, align 8, !tbaa !20
  ret void
}