; Function Attrs: mustprogress nofree norecurse nosync nounwind willreturn memory(argmem: write) uwtable
define void @_ZN4base10JSONWriterC2EiPNSt7__cxx1112basic_stringIcSt11char_traitsIcESaIcEEE(ptr noundef nonnull writeonly align 8 captures(none) dereferenceable(16) initializes((0, 3), (8, 16)) %0, i32 noundef %1, ptr noundef %2) unnamed_addr #3 align 2 {
  %4 = trunc i32 %1 to i8
  %5 = and i8 %4, 1
  store i8 %5, ptr %0, align 8, !tbaa !39
  %6 = getelementptr inbounds nuw i8, ptr %0, i64 1
  %7 = lshr i8 %4, 1
  %8 = and i8 %7, 1
  store i8 %8, ptr %6, align 1, !tbaa !27
  %9 = getelementptr inbounds nuw i8, ptr %0, i64 2
  %10 = lshr i8 %4, 2
  %11 = and i8 %10, 1
  store i8 %11, ptr %9, align 2, !tbaa !34
  %12 = getelementptr inbounds nuw i8, ptr %0, i64 8
  store ptr %2, ptr %12, align 8, !tbaa !16
  ret void
}